target datalayout = "e-m:e-p270:32:32-p271:32:32-p272:64:64-i64:64-i128:128-f80:128-n8:16:32:64-S128"
target triple = "x86_64-pc-linux-gnu"

%"struct.google::protobuf::internal::ThreadSafeArena::CacheAlignedLifecycleIdGenerator" = type { %"struct.std::atomic", [56 x i8] }
%"struct.std::atomic" = type { %"struct.std::__atomic_base" }
%"struct.std::__atomic_base" = type { i64 }
%"struct.google::protobuf::internal::ThreadSafeArena::ThreadCache" = type { i64, i64, ptr, [40 x i8] }
%"class.google::protobuf::internal::ThreadSafeArena" = type { i64, %"class.google::protobuf::internal::TaggedAllocationPolicyPtr", %"struct.std::atomic.0", %"struct.std::atomic.0" }
%"class.google::protobuf::internal::TaggedAllocationPolicyPtr" = type { i64 }
%"struct.std::atomic.0" = type { %"struct.std::__atomic_base.1" }
%"struct.std::__atomic_base.1" = type { ptr }

@_ZN6google8protobuf8internal15ThreadSafeArena23lifecycle_id_generator_E = hidden global %"struct.google::protobuf::internal::ThreadSafeArena::CacheAlignedLifecycleIdGenerator" zeroinitializer, align 64
@_ZN6google8protobuf8internal15ThreadSafeArena13thread_cache_E = hidden thread_local global %"struct.google::protobuf::internal::ThreadSafeArena::ThreadCache" { i64 0, i64 -1, ptr null, [40 x i8] undef }, align 64

; Function Attrs: mustprogress nounwind uwtable
define linkonce_odr noundef i32 @_ZStanSt12memory_orderSt23__memory_order_modifier(i32 noundef %0, i32 noundef %1) #6 comdat {
  %3 = alloca i32, align 4
  %4 = alloca i32, align 4
  store i32 %0, ptr %3, align 4, !tbaa !35
  store i32 %1, ptr %4, align 4, !tbaa !126
  %5 = load i32, ptr %3, align 4, !tbaa !35
  %6 = load i32, ptr %4, align 4, !tbaa !126
  %7 = and i32 %5, %6
  ret i32 %7
}

; Function Attrs: alwaysinline mustprogress nounwind uwtable
define linkonce_odr hidden void @_ZNSt13__atomic_baseIPN6google8protobuf8internal11SerialArenaEE5storeES4_St12memory_order(ptr noundef nonnull align 8 dereferenceable(8) %0, ptr noundef %1, i32 noundef %2) #9 comdat align 2 {
  %4 = alloca ptr, align 8
  %5 = alloca ptr, align 8
  %6 = alloca i32, align 4
  %7 = alloca i32, align 4
  %8 = alloca ptr, align 8
  store ptr %0, ptr %4, align 8, !tbaa !128
  store ptr %1, ptr %5, align 8, !tbaa !22
  store i32 %2, ptr %6, align 4, !tbaa !35
  %9 = load ptr, ptr %4, align 8
  call void @llvm.lifetime.start.p0(i64 4, ptr %7) #3
  %10 = load i32, ptr %6, align 4, !tbaa !35
  %11 = call noundef i32 @_ZStanSt12memory_orderSt23__memory_order_modifier(i32 noundef %10, i32 noundef 65535)
  store i32 %11, ptr %7, align 4, !tbaa !35
  br label %12

12:                                               ; preds = %3
  br label %13

13:                                               ; preds = %12
  br label %14

14:                                               ; preds = %13
  br label %15

15:                                               ; preds = %14
  br label %16

16:                                               ; preds = %15
  br label %17

17:                                               ; preds = %16
  br label %18

18:                                               ; preds = %17
  br label %19

19:                                               ; preds = %18
  br label %20

20:                                               ; preds = %19
  %21 = getelementptr inbounds nuw %"struct.std::__atomic_base.1", ptr %9, i32 0, i32 0
  %22 = load i32, ptr %6, align 4, !tbaa !35
  %23 = load ptr, ptr %5, align 8, !tbaa !22
  store ptr %23, ptr %8, align 8, !tbaa !22
  switch i32 %22, label %24 [
    i32 3, label %26
    i32 5, label %28
  ]

24:                                               ; preds = %20
  %25 = load i64, ptr %8, align 8
  store atomic i64 %25, ptr %21 monotonic, align 8
  br label %30

26:                                               ; preds = %20
  %27 = load i64, ptr %8, align 8
  store atomic i64 %27, ptr %21 release, align 8
  br label %30

28:                                               ; preds = %20
  %29 = load i64, ptr %8, align 8
  store atomic i64 %29, ptr %21 seq_cst, align 8
  br label %30

30:                                               ; preds = %28, %26, %24
  call void @llvm.lifetime.end.p0(i64 4, ptr %7) #3
  ret void
}

; Function Attrs: mustprogress nounwind uwtable
define linkonce_odr hidden void @_ZNSt6atomicIPN6google8protobuf8internal11SerialArenaEE5storeES4_St12memory_order(ptr noundef nonnull align 8 dereferenceable(8) %0, ptr noundef %1, i32 noundef %2) #6 comdat align 2 {
  %4 = alloca ptr, align 8
  %5 = alloca ptr, align 8
  %6 = alloca i32, align 4
  store ptr %0, ptr %4, align 8, !tbaa !77
  store ptr %1, ptr %5, align 8, !tbaa !22
  store i32 %2, ptr %6, align 4, !tbaa !35
  %7 = load ptr, ptr %4, align 8
  %8 = getelementptr inbounds nuw %"struct.std::atomic.0", ptr %7, i32 0, i32 0
  %9 = load ptr, ptr %5, align 8, !tbaa !22
  %10 = load i32, ptr %6, align 4, !tbaa !35
  call void @_ZNSt13__atomic_baseIPN6google8protobuf8internal11SerialArenaEE5storeES4_St12memory_order(ptr noundef nonnull align 8 dereferenceable(8) %8, ptr noundef %9, i32 noundef %10) #3
  ret void
}

; Function Attrs: alwaysinline mustprogress nounwind uwtable
define linkonce_odr hidden noundef i64 @_ZNSt13__atomic_baseImE9fetch_addEmSt12memory_order(ptr noundef nonnull align 8 dereferenceable(8) %0, i64 noundef %1, i32 noundef %2) #9 comdat align 2 {
  %4 = alloca ptr, align 8
  %5 = alloca i64, align 8
  %6 = alloca i32, align 4
  %7 = alloca i64, align 8
  %8 = alloca i64, align 8
  store ptr %0, ptr %4, align 8, !tbaa !44
  store i64 %1, ptr %5, align 8, !tbaa !15
  store i32 %2, ptr %6, align 4, !tbaa !35
  %9 = load ptr, ptr %4, align 8
  %10 = getelementptr inbounds nuw %"struct.std::__atomic_base", ptr %9, i32 0, i32 0
  %11 = load i32, ptr %6, align 4, !tbaa !35
  %12 = load i64, ptr %5, align 8, !tbaa !15
  store i64 %12, ptr %7, align 8, !tbaa !15
  switch i32 %11, label %13 [
    i32 1, label %16
    i32 2, label %16
    i32 3, label %19
    i32 4, label %22
    i32 5, label %25
  ]

13:                                               ; preds = %3
  %14 = load i64, ptr %7, align 8
  %15 = atomicrmw add ptr %10, i64 %14 monotonic, align 8
  store i64 %15, ptr %8, align 8
  br label %28

16:                                               ; preds = %3, %3
  %17 = load i64, ptr %7, align 8
  %18 = atomicrmw add ptr %10, i64 %17 acquire, align 8
  store i64 %18, ptr %8, align 8
  br label %28

19:                                               ; preds = %3
  %20 = load i64, ptr %7, align 8
  %21 = atomicrmw add ptr %10, i64 %20 release, align 8
  store i64 %21, ptr %8, align 8
  br label %28

22:                                               ; preds = %3
  %23 = load i64, ptr %7, align 8
  %24 = atomicrmw add ptr %10, i64 %23 acq_rel, align 8
  store i64 %24, ptr %8, align 8
  br label %28

25:                                               ; preds = %3
  %26 = load i64, ptr %7, align 8
  %27 = atomicrmw add ptr %10, i64 %26 seq_cst, align 8
  store i64 %27, ptr %8, align 8
  br label %28

28:                                               ; preds = %25, %22, %19, %16, %13
  %29 = load i64, ptr %8, align 8, !tbaa !15
  ret i64 %29
}

; Function Attrs: mustprogress nounwind uwtable
define linkonce_odr hidden noundef nonnull align 64 dereferenceable(64) ptr @_ZN6google8protobuf8internal15ThreadSafeArena12thread_cacheEv() #6 comdat align 2 {
  %1 = call align 64 ptr @llvm.threadlocal.address.p0(ptr align 64 @_ZN6google8protobuf8internal15ThreadSafeArena13thread_cache_E)
  ret ptr %1
}

; Function Attrs: mustprogress uwtable
define hidden void @_ZN6google8protobuf8internal15ThreadSafeArena4InitEv(ptr noundef nonnull align 8 dereferenceable(32) %0) #4 align 2 {
  %2 = alloca ptr, align 8
  %3 = alloca ptr, align 8
  %4 = alloca i64, align 8
  %5 = alloca i64, align 8
  %6 = alloca i64, align 8
  %7 = alloca i32, align 4
  store ptr %0, ptr %2, align 8, !tbaa !52
  %8 = load ptr, ptr %2, align 8
  call void @llvm.lifetime.start.p0(i64 8, ptr %3) #3
  %9 = call noundef nonnull align 64 dereferenceable(64) ptr @_ZN6google8protobuf8internal15ThreadSafeArena12thread_cacheEv()
  store ptr %9, ptr %3, align 8, !tbaa !56
  call void @llvm.lifetime.start.p0(i64 8, ptr %4) #3
  %10 = load ptr, ptr %3, align 8, !tbaa !56
  %11 = getelementptr inbounds nuw %"struct.google::protobuf::internal::ThreadSafeArena::ThreadCache", ptr %10, i32 0, i32 0
  %12 = load i64, ptr %11, align 64, !tbaa !58
  store i64 %12, ptr %4, align 8, !tbaa !15
  call void @llvm.lifetime.start.p0(i64 8, ptr %5) #3
  store i64 2, ptr %5, align 8, !tbaa !15
  call void @llvm.lifetime.start.p0(i64 8, ptr %6) #3
  store i64 512, ptr %6, align 8, !tbaa !15
  %13 = load i64, ptr %4, align 8, !tbaa !15
  %14 = and i64 %13, 511
  %15 = icmp eq i64 %14, 0
  %16 = zext i1 %15 to i64
  %17 = call i64 @llvm.expect.i64(i64 %16, i64 0)
  %18 = icmp ne i64 %17, 0
  br i1 %18, label %19, label %22

19:                                               ; preds = %1
  call void @llvm.lifetime.start.p0(i64 4, ptr %7) #3
  store i32 0, ptr %7, align 4, !tbaa !35
  %20 = call noundef i64 @_ZNSt13__atomic_baseImE9fetch_addEmSt12memory_order(ptr noundef nonnull align 8 dereferenceable(8) @_ZN6google8protobuf8internal15ThreadSafeArena23lifecycle_id_generator_E, i64 noundef 1, i32 noundef 0) #3
  %21 = mul i64 %20, 512
  store i64 %21, ptr %4, align 8, !tbaa !15
  call void @llvm.lifetime.end.p0(i64 4, ptr %7) #3
  br label %22

22:                                               ; preds = %19, %1
  %23 = load i64, ptr %4, align 8, !tbaa !15
  %24 = add i64 %23, 2
  %25 = load ptr, ptr %3, align 8, !tbaa !56
  %26 = getelementptr inbounds nuw %"struct.google::protobuf::internal::ThreadSafeArena::ThreadCache", ptr %25, i32 0, i32 0
  store i64 %24, ptr %26, align 64, !tbaa !58
  %27 = load i64, ptr %4, align 8, !tbaa !15
  %28 = getelementptr inbounds nuw %"class.google::protobuf::internal::ThreadSafeArena", ptr %8, i32 0, i32 0
  %29 = load i64, ptr %28, align 8, !tbaa !60
  %30 = and i64 %29, 1
  %31 = or i64 %27, %30
  %32 = getelementptr inbounds nuw %"class.google::protobuf::internal::ThreadSafeArena", ptr %8, i32 0, i32 0
  store i64 %31, ptr %32, align 8, !tbaa !60
  %33 = getelementptr inbounds nuw %"class.google::protobuf::internal::ThreadSafeArena", ptr %8, i32 0, i32 3
  call void @_ZNSt6atomicIPN6google8protobuf8internal11SerialArenaEE5storeES4_St12memory_order(ptr noundef nonnull align 8 dereferenceable(8) %33, ptr noundef null, i32 noundef 0) #3
  %34 = getelementptr inbounds nuw %"class.google::protobuf::internal::ThreadSafeArena", ptr %8, i32 0, i32 2
  call void @_ZNSt6atomicIPN6google8protobuf8internal11SerialArenaEE5storeES4_St12memory_order(ptr noundef nonnull align 8 dereferenceable(8) %34, ptr noundef null, i32 noundef 0) #3
  call void @llvm.lifetime.end.p0(i64 8, ptr %6) #3
  call void @llvm.lifetime.end.p0(i64 8, ptr %5) #3
  call void @llvm.lifetime.end.p0(i64 8, ptr %4) #3
  call void @llvm.lifetime.end.p0(i64 8, ptr %3) #3
  ret void
}