; Function Attrs: mustprogress nofree norecurse nounwind willreturn memory(readwrite, inaccessiblemem: none) uwtable
define hidden void @_ZN6google8protobuf8internal15ThreadSafeArena4InitEv(ptr noundef nonnull align 8 captures(none) dereferenceable(32) %0) local_unnamed_addr #8 align 2 {
  %2 = tail call noundef nonnull align 64 dereferenceable(64) ptr @llvm.threadlocal.address.p0(ptr align 64 @_ZN6google8protobuf8internal15ThreadSafeArena13thread_cache_E)
  %3 = load i64, ptr %2, align 64, !tbaa !32
  %4 = and i64 %3, 511
  %5 = icmp eq i64 %4, 0
  br i1 %5, label %6, label %9, !prof !34

6:                                                ; preds = %1
  %7 = atomicrmw add ptr @_ZN6google8protobuf8internal15ThreadSafeArena23lifecycle_id_generator_E, i64 1 monotonic, align 8
  %8 = shl i64 %7, 9
  br label %9

9:                                                ; preds = %6, %1
  %.0 = phi i64 [ %8, %6 ], [ %3, %1 ]
  %10 = add i64 %.0, 2
  store i64 %10, ptr %2, align 64, !tbaa !32
  %11 = load i64, ptr %0, align 8, !tbaa !35
  %12 = and i64 %11, 1
  %13 = or i64 %12, %.0
  store i64 %13, ptr %0, align 8, !tbaa !35
  %14 = getelementptr inbounds nuw i8, ptr %0, i64 24
  store atomic i64 0, ptr %14 monotonic, align 8
  %15 = getelementptr inbounds nuw i8, ptr %0, i64 16
  store atomic i64 0, ptr %15 monotonic, align 8
  ret void
}